
irq.elf:     file format elf32-littlearm


Disassembly of section .text:

50000000 <_start>:
50000000:	e3a00207 	mov	r0, #1879048192	; 0x70000000
50000004:	e3800013 	orr	r0, r0, #19
50000008:	ee0f0f92 	mcr	15, 0, r0, cr15, cr2, {4}
5000000c:	e59f00b4 	ldr	r0, [pc, #180]	; 500000c8 <raise+0x8>
50000010:	e3a01000 	mov	r1, #0
50000014:	e5801000 	str	r1, [r0]
50000018:	ee110f10 	mrc	15, 0, r0, cr1, cr0, {0}
5000001c:	e3800401 	orr	r0, r0, #16777216	; 0x1000000
50000020:	ee010f10 	mcr	15, 0, r0, cr1, cr0, {0}
50000024:	e3a0da02 	mov	sp, #8192	; 0x2000
50000028:	eb000035 	bl	50000104 <clock_init>
5000002c:	eb000060 	bl	500001b4 <sdram_init>
50000030:	eb0000c2 	bl	50000340 <nand_init>
50000034:	eb000167 	bl	500005d8 <irq_init>
50000038:	e10f0000 	mrs	r0, CPSR
5000003c:	e3c00080 	bic	r0, r0, #128	; 0x80
50000040:	e121f000 	msr	CPSR_c, r0
50000044:	e24f004c 	sub	r0, pc, #76	; 0x4c
50000048:	e59f107c 	ldr	r1, [pc, #124]	; 500000cc <raise+0xc>
5000004c:	e59f207c 	ldr	r2, [pc, #124]	; 500000d0 <raise+0x10>
50000050:	e0422001 	sub	r2, r2, r1
50000054:	e1500001 	cmp	r0, r1
50000058:	0a000002 	beq	50000068 <clean_bss>
5000005c:	eb0000c0 	bl	50000364 <copy2ddr>
50000060:	e3500000 	cmp	r0, #0
50000064:	1a000014 	bne	500000bc <halt>

50000068 <clean_bss>:
50000068:	e59f0060 	ldr	r0, [pc, #96]	; 500000d0 <raise+0x10>
5000006c:	e59f1060 	ldr	r1, [pc, #96]	; 500000d4 <raise+0x14>
50000070:	e3a03000 	mov	r3, #0
50000074:	e1500001 	cmp	r0, r1
50000078:	0a000002 	beq	50000088 <on_ddr>

5000007c <clean_loop>:
5000007c:	e4803004 	str	r3, [r0], #4
50000080:	e1500001 	cmp	r0, r1
50000084:	1afffffc 	bne	5000007c <clean_loop>

50000088 <on_ddr>:
50000088:	e59ff048 	ldr	pc, [pc, #72]	; 500000d8 <raise+0x18>

5000008c <asm_k1_irq>:
5000008c:	50000090 	mulpl	r0, r0, r0

50000090 <irq_1>:
50000090:	e3a0d315 	mov	sp, #1409286144	; 0x54000000
50000094:	e24ee004 	sub	lr, lr, #4
50000098:	e92d5fff 	push	{r0, r1, r2, r3, r4, r5, r6, r7, r8, r9, sl, fp, ip, lr}
5000009c:	eb000174 	bl	50000674 <do_irq_1>
500000a0:	e8fd9fff 	ldm	sp!, {r0, r1, r2, r3, r4, r5, r6, r7, r8, r9, sl, fp, ip, pc}^

500000a4 <asm_timer_irq>:
500000a4:	500000a8 	andpl	r0, r0, r8, lsr #1

500000a8 <irq_2>:
500000a8:	e3a0d315 	mov	sp, #1409286144	; 0x54000000
500000ac:	e24ee004 	sub	lr, lr, #4
500000b0:	e92d5fff 	push	{r0, r1, r2, r3, r4, r5, r6, r7, r8, r9, sl, fp, ip, lr}
500000b4:	eb0001e7 	bl	50000858 <do_irq_2>
500000b8:	e8fd9fff 	ldm	sp!, {r0, r1, r2, r3, r4, r5, r6, r7, r8, r9, sl, fp, ip, pc}^

500000bc <halt>:
500000bc:	eafffffe 	b	500000bc <halt>

500000c0 <raise>:
500000c0:	e320f000 	nop	{0}
500000c4:	e1a0f00e 	mov	pc, lr
500000c8:	7e004000 	cdpvc	0, 0, cr4, cr0, cr0, {0}
500000cc:	50000000 	andpl	r0, r0, r0
500000d0:	50000bc0 	andpl	r0, r0, r0, asr #23
500000d4:	50000bd0 	ldrdpl	r0, [r0], -r0
500000d8:	50000bbc 	undefined instruction 0x50000bbc
500000dc:	00002541 	andeq	r2, r0, r1, asr #10
500000e0:	61656100 	cmnvs	r5, r0, lsl #2
500000e4:	01006962 	tsteq	r0, r2, ror #18
500000e8:	0000001b 	andeq	r0, r0, fp, lsl r0
500000ec:	4d524105 	ldfmie	f4, [r2, #-20]	; 0xffffffec
500000f0:	36373131 	undefined instruction 0x36373131
500000f4:	2d465a4a 	vstrcs	s11, [r6, #-296]	; 0xfffffed8
500000f8:	09060053 	stmdbeq	r6, {r0, r1, r4, r6}
500000fc:	01090108 	tsteq	r9, r8, lsl #2
50000100:	0000020a 	andeq	r0, r0, sl, lsl #4

50000104 <clock_init>:
50000104:	e59f3048 	ldr	r3, [pc, #72]	; 50000154 <clock_init+0x50>
50000108:	e59f2048 	ldr	r2, [pc, #72]	; 50000158 <clock_init+0x54>
5000010c:	e5832000 	str	r2, [r3]
50000110:	e5832004 	str	r2, [r3, #4]
50000114:	e5832008 	str	r2, [r3, #8]
50000118:	e5932900 	ldr	r2, [r3, #2304]	; 0x900
5000011c:	e3c220c0 	bic	r2, r2, #192	; 0xc0
50000120:	e5832900 	str	r2, [r3, #2304]	; 0x900
50000124:	e5931900 	ldr	r1, [r3, #2304]	; 0x900
50000128:	e59f2024 	ldr	r2, [pc, #36]	; 50000154 <clock_init+0x50>
5000012c:	e3110c0f 	tst	r1, #3840	; 0xf00
50000130:	1afffffb 	bne	50000124 <clock_init+0x20>
50000134:	e3a03c33 	mov	r3, #13056	; 0x3300
50000138:	e5823020 	str	r3, [r2, #32]
5000013c:	e59f3018 	ldr	r3, [pc, #24]	; 5000015c <clock_init+0x58>
50000140:	e582300c 	str	r3, [r2, #12]
50000144:	e5823010 	str	r3, [r2, #16]
50000148:	e3a03003 	mov	r3, #3
5000014c:	e582301c 	str	r3, [r2, #28]
50000150:	e12fff1e 	bx	lr
50000154:	7e00f000 	cdpvc	0, 0, cr15, cr0, cr0, {0}
50000158:	0000ffff 	strdeq	pc, [r0], -pc
5000015c:	80fa0301 	rscshi	r0, sl, r1, lsl #6
50000160:	3a434347 	bcc	510d0e84 <bss_end+0x10d02b4>
50000164:	74632820 	strbtvc	r2, [r3], #-2080	; 0x820
50000168:	312d676e 	teqcc	sp, lr, ror #14
5000016c:	312e382e 	teqcc	lr, lr, lsr #16
50000170:	2941462d 	stmdbcs	r1, {r0, r2, r3, r5, r9, sl, lr}^
50000174:	352e3420 	strcc	r3, [lr, #-1056]!	; 0x420
50000178:	4100312e 	tstmi	r0, lr, lsr #2
5000017c:	00000037 	andeq	r0, r0, r7, lsr r0
50000180:	62616561 	rsbvs	r6, r1, #406847488	; 0x18400000
50000184:	2d010069 	stccs	0, cr0, [r1, #-420]	; 0xfffffe5c
50000188:	05000000 	streq	r0, [r0]
5000018c:	314d5241 	cmpcc	sp, r1, asr #4
50000190:	4a363731 	bmi	50d8de5c <bss_end+0xd8d28c>
50000194:	532d465a 	teqpl	sp, #94371840	; 0x5a00000
50000198:	08090600 	stmdaeq	r9, {r9, sl}
5000019c:	0a010901 	beq	500425a8 <bss_end+0x419d8>
500001a0:	14041202 	strne	r1, [r4], #-514	; 0x202
500001a4:	17011501 	strne	r1, [r1, -r1, lsl #10]
500001a8:	19011803 	stmdbne	r1, {r0, r1, fp, ip}
500001ac:	1b021a01 	blne	500869b8 <bss_end+0x85de8>
500001b0:	00041e03 	andeq	r1, r4, r3, lsl #28

500001b4 <sdram_init>:
500001b4:	e59f3138 	ldr	r3, [pc, #312]	; 500002f4 <sdram_init+0x140>
500001b8:	e3a02004 	mov	r2, #4
500001bc:	e5832004 	str	r2, [r3, #4]
500001c0:	e59f2130 	ldr	r2, [pc, #304]	; 500002f8 <sdram_init+0x144>
500001c4:	e3a01002 	mov	r1, #2
500001c8:	e5832010 	str	r2, [r3, #16]
500001cc:	e3a02006 	mov	r2, #6
500001d0:	e5832014 	str	r2, [r3, #20]
500001d4:	e3a00007 	mov	r0, #7
500001d8:	e3a02001 	mov	r2, #1
500001dc:	e5832018 	str	r2, [r3, #24]
500001e0:	e59fc114 	ldr	ip, [pc, #276]	; 500002fc <sdram_init+0x148>
500001e4:	e583101c 	str	r1, [r3, #28]
500001e8:	e5830020 	str	r0, [r3, #32]
500001ec:	e0800001 	add	r0, r0, r1
500001f0:	e5830024 	str	r0, [r3, #36]	; 0x24
500001f4:	e3a00003 	mov	r0, #3
500001f8:	e5830028 	str	r0, [r3, #40]	; 0x28
500001fc:	e583c02c 	str	ip, [r3, #44]	; 0x2c
50000200:	e5830030 	str	r0, [r3, #48]	; 0x30
50000204:	e5831034 	str	r1, [r3, #52]	; 0x34
50000208:	e5831038 	str	r1, [r3, #56]	; 0x38
5000020c:	e583203c 	str	r2, [r3, #60]	; 0x3c
50000210:	e5832040 	str	r2, [r3, #64]	; 0x40
50000214:	e2822011 	add	r2, r2, #17
50000218:	e5832044 	str	r2, [r3, #68]	; 0x44
5000021c:	e5832048 	str	r2, [r3, #72]	; 0x48
50000220:	e593200c 	ldr	r2, [r3, #12]
50000224:	e3c22007 	bic	r2, r2, #7
50000228:	e1822001 	orr	r2, r2, r1
5000022c:	e583200c 	str	r2, [r3, #12]
50000230:	e593200c 	ldr	r2, [r3, #12]
50000234:	e3a01701 	mov	r1, #262144	; 0x40000
50000238:	e3c22038 	bic	r2, r2, #56	; 0x38
5000023c:	e3822018 	orr	r2, r2, #24
50000240:	e583200c 	str	r2, [r3, #12]
50000244:	e593200c 	ldr	r2, [r3, #12]
50000248:	e3c22040 	bic	r2, r2, #64	; 0x40
5000024c:	e583200c 	str	r2, [r3, #12]
50000250:	e593200c 	ldr	r2, [r3, #12]
50000254:	e3c2290e 	bic	r2, r2, #229376	; 0x38000
50000258:	e3822801 	orr	r2, r2, #65536	; 0x10000
5000025c:	e583200c 	str	r2, [r3, #12]
50000260:	e593204c 	ldr	r2, [r3, #76]	; 0x4c
50000264:	e3c2200f 	bic	r2, r2, #15
50000268:	e3822005 	orr	r2, r2, #5
5000026c:	e583204c 	str	r2, [r3, #76]	; 0x4c
50000270:	e593204c 	ldr	r2, [r3, #76]	; 0x4c
50000274:	e3c220c0 	bic	r2, r2, #192	; 0xc0
50000278:	e3822040 	orr	r2, r2, #64	; 0x40
5000027c:	e583204c 	str	r2, [r3, #76]	; 0x4c
50000280:	e593204c 	ldr	r2, [r3, #76]	; 0x4c
50000284:	e3c22c07 	bic	r2, r2, #1792	; 0x700
50000288:	e3822c03 	orr	r2, r2, #768	; 0x300
5000028c:	e583204c 	str	r2, [r3, #76]	; 0x4c
50000290:	e593204c 	ldr	r2, [r3, #76]	; 0x4c
50000294:	e3c22b06 	bic	r2, r2, #6144	; 0x1800
50000298:	e3822b02 	orr	r2, r2, #2048	; 0x800
5000029c:	e583204c 	str	r2, [r3, #76]	; 0x4c
500002a0:	e5932200 	ldr	r2, [r3, #512]	; 0x200
500002a4:	e3822801 	orr	r2, r2, #65536	; 0x10000
500002a8:	e5832200 	str	r2, [r3, #512]	; 0x200
500002ac:	e3a02703 	mov	r2, #786432	; 0xc0000
500002b0:	e5832008 	str	r2, [r3, #8]
500002b4:	e2422703 	sub	r2, r2, #786432	; 0xc0000
500002b8:	e5832008 	str	r2, [r3, #8]
500002bc:	e5831008 	str	r1, [r3, #8]
500002c0:	e5831008 	str	r1, [r3, #8]
500002c4:	e2811806 	add	r1, r1, #393216	; 0x60000
500002c8:	e5831008 	str	r1, [r3, #8]
500002cc:	e59f102c 	ldr	r1, [pc, #44]	; 50000300 <sdram_init+0x14c>
500002d0:	e5831008 	str	r1, [r3, #8]
500002d4:	e59f1028 	ldr	r1, [pc, #40]	; 50000304 <sdram_init+0x150>
500002d8:	e5812120 	str	r2, [r1, #288]	; 0x120
500002dc:	e5832004 	str	r2, [r3, #4]
500002e0:	e5932000 	ldr	r2, [r3]
500002e4:	e2022003 	and	r2, r2, #3
500002e8:	e3520001 	cmp	r2, #1
500002ec:	1afffffb 	bne	500002e0 <sdram_init+0x12c>
500002f0:	e12fff1e 	bx	lr
500002f4:	7e001000 	cdpvc	0, 0, cr1, cr0, cr0, {0}
500002f8:	0000045b 	andeq	r0, r0, fp, asr r4
500002fc:	0000010b 	andeq	r0, r0, fp, lsl #2
50000300:	00080032 	andeq	r0, r8, r2, lsr r0
50000304:	7e00f000 	cdpvc	0, 0, cr15, cr0, cr0, {0}
50000308:	00003741 	andeq	r3, r0, r1, asr #14
5000030c:	61656100 	cmnvs	r5, r0, lsl #2
50000310:	01006962 	tsteq	r0, r2, ror #18
50000314:	0000002d 	andeq	r0, r0, sp, lsr #32
50000318:	4d524105 	ldfmie	f4, [r2, #-20]	; 0xffffffec
5000031c:	36373131 	undefined instruction 0x36373131
50000320:	2d465a4a 	vstrcs	s11, [r6, #-296]	; 0xfffffed8
50000324:	09060053 	stmdbeq	r6, {r0, r1, r4, r6}
50000328:	01090108 	tsteq	r9, r8, lsl #2
5000032c:	0412020a 	ldreq	r0, [r2], #-522	; 0x20a
50000330:	01150114 	tsteq	r5, r4, lsl r1
50000334:	01180317 	tsteq	r8, r7, lsl r3
50000338:	021a0119 	andseq	r0, sl, #1073741830	; 0x40000006
5000033c:	041e031b 	ldreq	r0, [lr], #-795	; 0x31b

50000340 <nand_init>:
50000340:	e59f3014 	ldr	r3, [pc, #20]	; 5000035c <nand_init+0x1c>
50000344:	e59f2014 	ldr	r2, [pc, #20]	; 50000360 <nand_init+0x20>
50000348:	e5832000 	str	r2, [r3]
5000034c:	e5932004 	ldr	r2, [r3, #4]
50000350:	e3822003 	orr	r2, r2, #3
50000354:	e5832004 	str	r2, [r3, #4]
50000358:	e12fff1e 	bx	lr
5000035c:	70200000 	eorvc	r0, r0, r0
50000360:	00002f70 	andeq	r2, r0, r0, ror pc

50000364 <copy2ddr>:
50000364:	e59f30b4 	ldr	r3, [pc, #180]	; 50000420 <copy2ddr+0xbc>
50000368:	e3c22e7f 	bic	r2, r2, #2032	; 0x7f0
5000036c:	e5930004 	ldr	r0, [r3, #4]
50000370:	e3c2200f 	bic	r2, r2, #15
50000374:	e2822b02 	add	r2, r2, #2048	; 0x800
50000378:	e92d40f0 	push	{r4, r5, r6, r7, lr}
5000037c:	e3c00002 	bic	r0, r0, #2
50000380:	e1a065a2 	lsr	r6, r2, #11
50000384:	e3a02000 	mov	r2, #0
50000388:	e5830004 	str	r0, [r3, #4]
5000038c:	e1a0c002 	mov	ip, r2
50000390:	e3a05030 	mov	r5, #48	; 0x30
50000394:	e1a04003 	mov	r4, r3
50000398:	ea00001c 	b	50000410 <copy2ddr+0xac>
5000039c:	e5930004 	ldr	r0, [r3, #4]
500003a0:	e3c00002 	bic	r0, r0, #2
500003a4:	e5830004 	str	r0, [r3, #4]
500003a8:	e20200ff 	and	r0, r2, #255	; 0xff
500003ac:	e583c008 	str	ip, [r3, #8]
500003b0:	e583c00c 	str	ip, [r3, #12]
500003b4:	e583c00c 	str	ip, [r3, #12]
500003b8:	e583000c 	str	r0, [r3, #12]
500003bc:	e1a00422 	lsr	r0, r2, #8
500003c0:	e20000ff 	and	r0, r0, #255	; 0xff
500003c4:	e583000c 	str	r0, [r3, #12]
500003c8:	e1a00822 	lsr	r0, r2, #16
500003cc:	e20000ff 	and	r0, r0, #255	; 0xff
500003d0:	e583000c 	str	r0, [r3, #12]
500003d4:	e5835008 	str	r5, [r3, #8]
500003d8:	e5930028 	ldr	r0, [r3, #40]	; 0x28
500003dc:	e3100001 	tst	r0, #1
500003e0:	0afffffc 	beq	500003d8 <copy2ddr+0x74>
500003e4:	e3a00000 	mov	r0, #0
500003e8:	e5d37010 	ldrb	r7, [r3, #16]
500003ec:	e7c17000 	strb	r7, [r1, r0]
500003f0:	e2800001 	add	r0, r0, #1
500003f4:	e3500b02 	cmp	r0, #2048	; 0x800
500003f8:	1afffffa 	bne	500003e8 <copy2ddr+0x84>
500003fc:	e5940004 	ldr	r0, [r4, #4]
50000400:	e2822001 	add	r2, r2, #1
50000404:	e3800002 	orr	r0, r0, #2
50000408:	e5840004 	str	r0, [r4, #4]
5000040c:	e2811b02 	add	r1, r1, #2048	; 0x800
50000410:	e1520006 	cmp	r2, r6
50000414:	1affffe0 	bne	5000039c <copy2ddr+0x38>
50000418:	e3a00000 	mov	r0, #0
5000041c:	e8bd80f0 	pop	{r4, r5, r6, r7, pc}
50000420:	70200000 	eorvc	r0, r0, r0
50000424:	00003741 	andeq	r3, r0, r1, asr #14
50000428:	61656100 	cmnvs	r5, r0, lsl #2
5000042c:	01006962 	tsteq	r0, r2, ror #18
50000430:	0000002d 	andeq	r0, r0, sp, lsr #32
50000434:	4d524105 	ldfmie	f4, [r2, #-20]	; 0xffffffec
50000438:	36373131 	undefined instruction 0x36373131
5000043c:	2d465a4a 	vstrcs	s11, [r6, #-296]	; 0xfffffed8
50000440:	09060053 	stmdbeq	r6, {r0, r1, r4, r6}
50000444:	01090108 	tsteq	r9, r8, lsl #2
50000448:	0412020a 	ldreq	r0, [r2], #-522	; 0x20a
5000044c:	01150114 	tsteq	r5, r4, lsl r1
50000450:	01180317 	tsteq	r8, r7, lsl r3
50000454:	021a0119 	andseq	r0, sl, #1073741830	; 0x40000006
50000458:	041e031b 	ldreq	r0, [lr], #-795	; 0x31b

5000045c <init_uart>:
5000045c:	e59f3048 	ldr	r3, [pc, #72]	; 500004ac <init_uart+0x50>
50000460:	e3a01000 	mov	r1, #0
50000464:	e5932000 	ldr	r2, [r3]
50000468:	e3c220ff 	bic	r2, r2, #255	; 0xff
5000046c:	e5832000 	str	r2, [r3]
50000470:	e5932000 	ldr	r2, [r3]
50000474:	e3822022 	orr	r2, r2, #34	; 0x22
50000478:	e5832000 	str	r2, [r3]
5000047c:	e2433a03 	sub	r3, r3, #12288	; 0x3000
50000480:	e3a02003 	mov	r2, #3
50000484:	e5832000 	str	r2, [r3]
50000488:	e2822002 	add	r2, r2, #2
5000048c:	e5832004 	str	r2, [r3, #4]
50000490:	e3a02001 	mov	r2, #1
50000494:	e5832008 	str	r2, [r3, #8]
50000498:	e583100c 	str	r1, [r3, #12]
5000049c:	e3a01023 	mov	r1, #35	; 0x23
500004a0:	e1c312b8 	strh	r1, [r3, #40]	; 0x28
500004a4:	e1c322bc 	strh	r2, [r3, #44]	; 0x2c
500004a8:	e12fff1e 	bx	lr
500004ac:	7f008000 	svcvc	0x00008000

500004b0 <getc>:
500004b0:	e59f3014 	ldr	r3, [pc, #20]	; 500004cc <getc+0x1c>
500004b4:	e5932018 	ldr	r2, [r3, #24]
500004b8:	e312007f 	tst	r2, #127	; 0x7f
500004bc:	0afffffc 	beq	500004b4 <getc+0x4>
500004c0:	e59f3004 	ldr	r3, [pc, #4]	; 500004cc <getc+0x1c>
500004c4:	e5d30024 	ldrb	r0, [r3, #36]	; 0x24
500004c8:	e12fff1e 	bx	lr
500004cc:	7f005000 	svcvc	0x00005000

500004d0 <putc>:
500004d0:	e59f3014 	ldr	r3, [pc, #20]	; 500004ec <putc+0x1c>
500004d4:	e5932018 	ldr	r2, [r3, #24]
500004d8:	e3120901 	tst	r2, #16384	; 0x4000
500004dc:	1afffffc 	bne	500004d4 <putc+0x4>
500004e0:	e59f3004 	ldr	r3, [pc, #4]	; 500004ec <putc+0x1c>
500004e4:	e5c30020 	strb	r0, [r3, #32]
500004e8:	e12fff1e 	bx	lr
500004ec:	7f005000 	svcvc	0x00005000

500004f0 <dely_ms>:
500004f0:	e24dd010 	sub	sp, sp, #16
500004f4:	e3a03000 	mov	r3, #0
500004f8:	e58d0004 	str	r0, [sp, #4]
500004fc:	e59f2048 	ldr	r2, [pc, #72]	; 5000054c <dely_ms+0x5c>
50000500:	e58d300c 	str	r3, [sp, #12]
50000504:	ea00000a 	b	50000534 <dely_ms+0x44>
50000508:	e58d3008 	str	r3, [sp, #8]
5000050c:	ea000002 	b	5000051c <dely_ms+0x2c>
50000510:	e59d1008 	ldr	r1, [sp, #8]
50000514:	e2811001 	add	r1, r1, #1
50000518:	e58d1008 	str	r1, [sp, #8]
5000051c:	e59d1008 	ldr	r1, [sp, #8]
50000520:	e1510002 	cmp	r1, r2
50000524:	dafffff9 	ble	50000510 <dely_ms+0x20>
50000528:	e59d100c 	ldr	r1, [sp, #12]
5000052c:	e2811001 	add	r1, r1, #1
50000530:	e58d100c 	str	r1, [sp, #12]
50000534:	e59d000c 	ldr	r0, [sp, #12]
50000538:	e59d1004 	ldr	r1, [sp, #4]
5000053c:	e1500001 	cmp	r0, r1
50000540:	bafffff0 	blt	50000508 <dely_ms+0x18>
50000544:	e28dd010 	add	sp, sp, #16
50000548:	e12fff1e 	bx	lr
5000054c:	000007fe 	strdeq	r0, [r0], -lr

50000550 <timer_init>:
50000550:	e59fc07c 	ldr	ip, [pc, #124]	; 500005d4 <timer_init+0x84>
50000554:	e92d4030 	push	{r4, r5, lr}
50000558:	e59c4000 	ldr	r4, [ip]
5000055c:	e3a0500f 	mov	r5, #15
50000560:	e3c448ff 	bic	r4, r4, #16711680	; 0xff0000
50000564:	e3c440ff 	bic	r4, r4, #255	; 0xff
50000568:	e1811004 	orr	r1, r1, r4
5000056c:	e58c1000 	str	r1, [ip]
50000570:	e59c4004 	ldr	r4, [ip, #4]
50000574:	e1a01100 	lsl	r1, r0, #2
50000578:	e3c44601 	bic	r4, r4, #1048576	; 0x100000
5000057c:	e1c44115 	bic	r4, r4, r5, lsl r1
50000580:	e1841112 	orr	r1, r4, r2, lsl r1
50000584:	e3a02001 	mov	r2, #1
50000588:	e1a00012 	lsl	r0, r2, r0
5000058c:	e58c1004 	str	r1, [ip, #4]
50000590:	e58c300c 	str	r3, [ip, #12]
50000594:	e59d300c 	ldr	r3, [sp, #12]
50000598:	e58c3010 	str	r3, [ip, #16]
5000059c:	e59c3008 	ldr	r3, [ip, #8]
500005a0:	e3833002 	orr	r3, r3, #2
500005a4:	e58c3008 	str	r3, [ip, #8]
500005a8:	e59c3008 	ldr	r3, [ip, #8]
500005ac:	e3c33002 	bic	r3, r3, #2
500005b0:	e58c3008 	str	r3, [ip, #8]
500005b4:	e59c3008 	ldr	r3, [ip, #8]
500005b8:	e3833009 	orr	r3, r3, #9
500005bc:	e58c3008 	str	r3, [ip, #8]
500005c0:	e59c3044 	ldr	r3, [ip, #68]	; 0x44
500005c4:	e1c33000 	bic	r3, r3, r0
500005c8:	e1830000 	orr	r0, r3, r0
500005cc:	e58c0044 	str	r0, [ip, #68]	; 0x44
500005d0:	e8bd8030 	pop	{r4, r5, pc}
500005d4:	7f006000 	svcvc	0x00006000

500005d8 <irq_init>:
500005d8:	e59f3080 	ldr	r3, [pc, #128]	; 50000660 <irq_init+0x88>
500005dc:	e3a01000 	mov	r1, #0
500005e0:	e5932830 	ldr	r2, [r3, #2096]	; 0x830
500005e4:	e3c220ff 	bic	r2, r2, #255	; 0xff
500005e8:	e5832830 	str	r2, [r3, #2096]	; 0x830
500005ec:	e5932830 	ldr	r2, [r3, #2096]	; 0x830
500005f0:	e38220aa 	orr	r2, r2, #170	; 0xaa
500005f4:	e5832830 	str	r2, [r3, #2096]	; 0x830
500005f8:	e5932900 	ldr	r2, [r3, #2304]	; 0x900
500005fc:	e3c220ff 	bic	r2, r2, #255	; 0xff
50000600:	e5832900 	str	r2, [r3, #2304]	; 0x900
50000604:	e5932900 	ldr	r2, [r3, #2304]	; 0x900
50000608:	e3822033 	orr	r2, r2, #51	; 0x33
5000060c:	e5832900 	str	r2, [r3, #2304]	; 0x900
50000610:	e5932920 	ldr	r2, [r3, #2336]	; 0x920
50000614:	e3c2200f 	bic	r2, r2, #15
50000618:	e5832920 	str	r2, [r3, #2336]	; 0x920
5000061c:	e59f2040 	ldr	r2, [pc, #64]	; 50000664 <irq_init+0x8c>
50000620:	e582100c 	str	r1, [r2, #12]
50000624:	e5921010 	ldr	r1, [r2, #16]
50000628:	e3811003 	orr	r1, r1, #3
5000062c:	e5821010 	str	r1, [r2, #16]
50000630:	e59f1030 	ldr	r1, [pc, #48]	; 50000668 <irq_init+0x90>
50000634:	e5821100 	str	r1, [r2, #256]	; 0x100
50000638:	e5921010 	ldr	r1, [r2, #16]
5000063c:	e3811502 	orr	r1, r1, #8388608	; 0x800000
50000640:	e5821010 	str	r1, [r2, #16]
50000644:	e59f1020 	ldr	r1, [pc, #32]	; 5000066c <irq_init+0x94>
50000648:	e582115c 	str	r1, [r2, #348]	; 0x15c
5000064c:	e59f201c 	ldr	r2, [pc, #28]	; 50000670 <irq_init+0x98>
50000650:	e5832800 	str	r2, [r3, #2048]	; 0x800
50000654:	e3a020f0 	mov	r2, #240	; 0xf0
50000658:	e5832808 	str	r2, [r3, #2056]	; 0x808
5000065c:	e12fff1e 	bx	lr
50000660:	7f008000 	svcvc	0x00008000
50000664:	71200000 	teqvc	r0, r0
50000668:	5000008c 	andpl	r0, r0, ip, lsl #1
5000066c:	500000a4 	andpl	r0, r0, r4, lsr #1
50000670:	11110000 	tstne	r1, r0

50000674 <do_irq_1>:
50000674:	e92d4037 	push	{r0, r1, r2, r4, r5, lr}
50000678:	e59f41b4 	ldr	r4, [pc, #436]	; 50000834 <do_irq_1+0x1c0>
5000067c:	e5943924 	ldr	r3, [r4, #2340]	; 0x924
50000680:	e3130001 	tst	r3, #1
50000684:	0a000005 	beq	500006a0 <do_irq_1+0x2c>
50000688:	e59f31a8 	ldr	r3, [pc, #424]	; 50000838 <do_irq_1+0x1c4>
5000068c:	e5932000 	ldr	r2, [r3]
50000690:	e2822001 	add	r2, r2, #1
50000694:	e5832000 	str	r2, [r3]
50000698:	e3a030ef 	mov	r3, #239	; 0xef
5000069c:	ea000010 	b	500006e4 <do_irq_1+0x70>
500006a0:	e5945924 	ldr	r5, [r4, #2340]	; 0x924
500006a4:	e2155002 	ands	r5, r5, #2
500006a8:	0a000013 	beq	500006fc <do_irq_1+0x88>
500006ac:	e3a00f7d 	mov	r0, #500	; 0x1f4
500006b0:	ebffff8e 	bl	500004f0 <dely_ms>
500006b4:	e5943924 	ldr	r3, [r4, #2340]	; 0x924
500006b8:	e3130001 	tst	r3, #1
500006bc:	159f3178 	ldrne	r3, [pc, #376]	; 5000083c <do_irq_1+0x1c8>
500006c0:	059f3178 	ldreq	r3, [pc, #376]	; 50000840 <do_irq_1+0x1cc>
500006c4:	15932000 	ldrne	r2, [r3]
500006c8:	05932000 	ldreq	r2, [r3]
500006cc:	12822001 	addne	r2, r2, #1
500006d0:	02822001 	addeq	r2, r2, #1
500006d4:	15832000 	strne	r2, [r3]
500006d8:	05832000 	streq	r2, [r3]
500006dc:	13a030bf 	movne	r3, #191	; 0xbf
500006e0:	03a030df 	moveq	r3, #223	; 0xdf
500006e4:	e5843808 	str	r3, [r4, #2056]	; 0x808
500006e8:	e3a00f7d 	mov	r0, #500	; 0x1f4
500006ec:	ebffff7f 	bl	500004f0 <dely_ms>
500006f0:	e3a030ff 	mov	r3, #255	; 0xff
500006f4:	e5843808 	str	r3, [r4, #2056]	; 0x808
500006f8:	ea000046 	b	50000818 <do_irq_1+0x1a4>
500006fc:	e5940924 	ldr	r0, [r4, #2340]	; 0x924
50000700:	e2100004 	ands	r0, r0, #4
50000704:	0a000019 	beq	50000770 <do_irq_1+0xfc>
50000708:	e3a00f7d 	mov	r0, #500	; 0x1f4
5000070c:	ebffff77 	bl	500004f0 <dely_ms>
50000710:	e5940924 	ldr	r0, [r4, #2340]	; 0x924
50000714:	e59f3128 	ldr	r3, [pc, #296]	; 50000844 <do_irq_1+0x1d0>
50000718:	e2100008 	ands	r0, r0, #8
5000071c:	0a00000d 	beq	50000758 <do_irq_1+0xe4>
50000720:	e59f2110 	ldr	r2, [pc, #272]	; 50000838 <do_irq_1+0x1c4>
50000724:	e1a00005 	mov	r0, r5
50000728:	e5825000 	str	r5, [r2]
5000072c:	e59f210c 	ldr	r2, [pc, #268]	; 50000840 <do_irq_1+0x1cc>
50000730:	e3a01041 	mov	r1, #65	; 0x41
50000734:	e5825000 	str	r5, [r2]
50000738:	e59f20fc 	ldr	r2, [pc, #252]	; 5000083c <do_irq_1+0x1c8>
5000073c:	e5825000 	str	r5, [r2]
50000740:	e3a02001 	mov	r2, #1
50000744:	e5832000 	str	r2, [r3]
50000748:	e58d5000 	str	r5, [sp]
5000074c:	e2822003 	add	r2, r2, #3
50000750:	e59f30f0 	ldr	r3, [pc, #240]	; 50000848 <do_irq_1+0x1d4>
50000754:	ea00002e 	b	50000814 <do_irq_1+0x1a0>
50000758:	e3a02002 	mov	r2, #2
5000075c:	e5832000 	str	r2, [r3]
50000760:	e3a01041 	mov	r1, #65	; 0x41
50000764:	e58d0000 	str	r0, [sp]
50000768:	e0822002 	add	r2, r2, r2
5000076c:	ea000027 	b	50000810 <do_irq_1+0x19c>
50000770:	e5943924 	ldr	r3, [r4, #2340]	; 0x924
50000774:	e3130008 	tst	r3, #8
50000778:	0a000026 	beq	50000818 <do_irq_1+0x1a4>
5000077c:	e59f30b8 	ldr	r3, [pc, #184]	; 5000083c <do_irq_1+0x1c8>
50000780:	e3a0100a 	mov	r1, #10
50000784:	e593c000 	ldr	ip, [r3]
50000788:	e59f30b0 	ldr	r3, [pc, #176]	; 50000840 <do_irq_1+0x1cc>
5000078c:	e59f20a4 	ldr	r2, [pc, #164]	; 50000838 <do_irq_1+0x1c4>
50000790:	e5933000 	ldr	r3, [r3]
50000794:	e5922000 	ldr	r2, [r2]
50000798:	e0010391 	mul	r1, r1, r3
5000079c:	e3a03064 	mov	r3, #100	; 0x64
500007a0:	e0231c93 	mla	r3, r3, ip, r1
500007a4:	e0833002 	add	r3, r3, r2
500007a8:	e2132001 	ands	r2, r3, #1
500007ac:	1a000011 	bne	500007f8 <do_irq_1+0x184>
500007b0:	e0833fa3 	add	r3, r3, r3, lsr #31
500007b4:	e1a010c3 	asr	r1, r3, #1
500007b8:	e2111001 	ands	r1, r1, #1
500007bc:	e59f3080 	ldr	r3, [pc, #128]	; 50000844 <do_irq_1+0x1d0>
500007c0:	0a000005 	beq	500007dc <do_irq_1+0x168>
500007c4:	e3a01003 	mov	r1, #3
500007c8:	e5831000 	str	r1, [r3]
500007cc:	e1a00002 	mov	r0, r2
500007d0:	e58d2000 	str	r2, [sp]
500007d4:	e281103e 	add	r1, r1, #62	; 0x3e
500007d8:	ea00000b 	b	5000080c <do_irq_1+0x198>
500007dc:	e3a02004 	mov	r2, #4
500007e0:	e5832000 	str	r2, [r3]
500007e4:	e1a00001 	mov	r0, r1
500007e8:	e58d1000 	str	r1, [sp]
500007ec:	e59f3058 	ldr	r3, [pc, #88]	; 5000084c <do_irq_1+0x1d8>
500007f0:	e3a01041 	mov	r1, #65	; 0x41
500007f4:	ea000006 	b	50000814 <do_irq_1+0x1a0>
500007f8:	e59f3044 	ldr	r3, [pc, #68]	; 50000844 <do_irq_1+0x1d0>
500007fc:	e3a02005 	mov	r2, #5
50000800:	e5832000 	str	r2, [r3]
50000804:	e3a01041 	mov	r1, #65	; 0x41
50000808:	e58d0000 	str	r0, [sp]
5000080c:	e3a02004 	mov	r2, #4
50000810:	e59f3038 	ldr	r3, [pc, #56]	; 50000850 <do_irq_1+0x1dc>
50000814:	ebffff4d 	bl	50000550 <timer_init>
50000818:	e59f3014 	ldr	r3, [pc, #20]	; 50000834 <do_irq_1+0x1c0>
5000081c:	e3a0203f 	mov	r2, #63	; 0x3f
50000820:	e5832924 	str	r2, [r3, #2340]	; 0x924
50000824:	e59f3028 	ldr	r3, [pc, #40]	; 50000854 <do_irq_1+0x1e0>
50000828:	e3a02000 	mov	r2, #0
5000082c:	e5832f00 	str	r2, [r3, #3840]	; 0xf00
50000830:	e8bd803e 	pop	{r1, r2, r3, r4, r5, pc}
50000834:	7f008000 	svcvc	0x00008000
50000838:	50000bcc 	andpl	r0, r0, ip, asr #23
5000083c:	50000bc8 	andpl	r0, r0, r8, asr #23
50000840:	50000bc4 	andpl	r0, r0, r4, asr #23
50000844:	50000bc0 	andpl	r0, r0, r0, asr #23
50000848:	00007a12 	andeq	r7, r0, r2, lsl sl
5000084c:	0001e848 	andeq	lr, r1, r8, asr #16
50000850:	0000f424 	andeq	pc, r0, r4, lsr #8
50000854:	71200000 	teqvc	r0, r0

50000858 <do_irq_2>:
50000858:	e59f3340 	ldr	r3, [pc, #832]	; 50000ba0 <do_irq_2+0x348>
5000085c:	e92d41f0 	push	{r4, r5, r6, r7, r8, lr}
50000860:	e5932000 	ldr	r2, [r3]
50000864:	e3520001 	cmp	r2, #1
50000868:	1a00000d 	bne	500008a4 <do_irq_2+0x4c>
5000086c:	e3a04003 	mov	r4, #3
50000870:	e59f532c 	ldr	r5, [pc, #812]	; 50000ba4 <do_irq_2+0x34c>
50000874:	e3a07000 	mov	r7, #0
50000878:	e3a060ff 	mov	r6, #255	; 0xff
5000087c:	ea000005 	b	50000898 <do_irq_2+0x40>
50000880:	e3a00f7d 	mov	r0, #500	; 0x1f4
50000884:	e5857808 	str	r7, [r5, #2056]	; 0x808
50000888:	ebffff18 	bl	500004f0 <dely_ms>
5000088c:	e5856808 	str	r6, [r5, #2056]	; 0x808
50000890:	e3a00f7d 	mov	r0, #500	; 0x1f4
50000894:	ebffff15 	bl	500004f0 <dely_ms>
50000898:	e2544001 	subs	r4, r4, #1
5000089c:	2afffff7 	bcs	50000880 <do_irq_2+0x28>
500008a0:	ea00009f 	b	50000b24 <do_irq_2+0x2cc>
500008a4:	e5932000 	ldr	r2, [r3]
500008a8:	e3520002 	cmp	r2, #2
500008ac:	1a00002d 	bne	50000968 <do_irq_2+0x110>
500008b0:	e59f32f0 	ldr	r3, [pc, #752]	; 50000ba8 <do_irq_2+0x350>
500008b4:	e59f52e8 	ldr	r5, [pc, #744]	; 50000ba4 <do_irq_2+0x34c>
500008b8:	e5934000 	ldr	r4, [r3]
500008bc:	e3a070ef 	mov	r7, #239	; 0xef
500008c0:	e3a060ff 	mov	r6, #255	; 0xff
500008c4:	ea000006 	b	500008e4 <do_irq_2+0x8c>
500008c8:	e3a00ffa 	mov	r0, #1000	; 0x3e8
500008cc:	e5857808 	str	r7, [r5, #2056]	; 0x808
500008d0:	ebffff06 	bl	500004f0 <dely_ms>
500008d4:	e5856808 	str	r6, [r5, #2056]	; 0x808
500008d8:	e3a00ffa 	mov	r0, #1000	; 0x3e8
500008dc:	ebffff03 	bl	500004f0 <dely_ms>
500008e0:	e2444001 	sub	r4, r4, #1
500008e4:	e3540000 	cmp	r4, #0
500008e8:	1afffff6 	bne	500008c8 <do_irq_2+0x70>
500008ec:	e59f32b8 	ldr	r3, [pc, #696]	; 50000bac <do_irq_2+0x354>
500008f0:	e59f52ac 	ldr	r5, [pc, #684]	; 50000ba4 <do_irq_2+0x34c>
500008f4:	e5934000 	ldr	r4, [r3]
500008f8:	e3a070df 	mov	r7, #223	; 0xdf
500008fc:	e3a060ff 	mov	r6, #255	; 0xff
50000900:	ea000006 	b	50000920 <do_irq_2+0xc8>
50000904:	e3a00ffa 	mov	r0, #1000	; 0x3e8
50000908:	e5857808 	str	r7, [r5, #2056]	; 0x808
5000090c:	ebfffef7 	bl	500004f0 <dely_ms>
50000910:	e5856808 	str	r6, [r5, #2056]	; 0x808
50000914:	e3a00ffa 	mov	r0, #1000	; 0x3e8
50000918:	ebfffef4 	bl	500004f0 <dely_ms>
5000091c:	e2444001 	sub	r4, r4, #1
50000920:	e3540000 	cmp	r4, #0
50000924:	1afffff6 	bne	50000904 <do_irq_2+0xac>
50000928:	e59f3280 	ldr	r3, [pc, #640]	; 50000bb0 <do_irq_2+0x358>
5000092c:	e59f5270 	ldr	r5, [pc, #624]	; 50000ba4 <do_irq_2+0x34c>
50000930:	e5934000 	ldr	r4, [r3]
50000934:	e3a070bf 	mov	r7, #191	; 0xbf
50000938:	e3a060ff 	mov	r6, #255	; 0xff
5000093c:	ea000006 	b	5000095c <do_irq_2+0x104>
50000940:	e3a00ffa 	mov	r0, #1000	; 0x3e8
50000944:	e5857808 	str	r7, [r5, #2056]	; 0x808
50000948:	ebfffee8 	bl	500004f0 <dely_ms>
5000094c:	e5856808 	str	r6, [r5, #2056]	; 0x808
50000950:	e3a00ffa 	mov	r0, #1000	; 0x3e8
50000954:	ebfffee5 	bl	500004f0 <dely_ms>
50000958:	e2444001 	sub	r4, r4, #1
5000095c:	e3540000 	cmp	r4, #0
50000960:	1afffff6 	bne	50000940 <do_irq_2+0xe8>
50000964:	ea000084 	b	50000b7c <do_irq_2+0x324>
50000968:	e5932000 	ldr	r2, [r3]
5000096c:	e3520003 	cmp	r2, #3
50000970:	1a000034 	bne	50000a48 <do_irq_2+0x1f0>
50000974:	ea000021 	b	50000a00 <do_irq_2+0x1a8>
50000978:	e3a05004 	mov	r5, #4
5000097c:	e5943808 	ldr	r3, [r4, #2056]	; 0x808
50000980:	e3a00ffa 	mov	r0, #1000	; 0x3e8
50000984:	e1c33518 	bic	r3, r3, r8, lsl r5
50000988:	e2855001 	add	r5, r5, #1
5000098c:	e5843808 	str	r3, [r4, #2056]	; 0x808
50000990:	ebfffed6 	bl	500004f0 <dely_ms>
50000994:	e3550007 	cmp	r5, #7
50000998:	e5847808 	str	r7, [r4, #2056]	; 0x808
5000099c:	1afffff6 	bne	5000097c <do_irq_2+0x124>
500009a0:	e5963924 	ldr	r3, [r6, #2340]	; 0x924
500009a4:	e5962924 	ldr	r2, [r6, #2340]	; 0x924
500009a8:	e3120002 	tst	r2, #2
500009ac:	13a03000 	movne	r3, #0
500009b0:	1a000002 	bne	500009c0 <do_irq_2+0x168>
500009b4:	e3130001 	tst	r3, #1
500009b8:	13a03000 	movne	r3, #0
500009bc:	03a03001 	moveq	r3, #1
500009c0:	e5942924 	ldr	r2, [r4, #2340]	; 0x924
500009c4:	e3120004 	tst	r2, #4
500009c8:	1a000055 	bne	50000b24 <do_irq_2+0x2cc>
500009cc:	e3530000 	cmp	r3, #0
500009d0:	0a000053 	beq	50000b24 <do_irq_2+0x2cc>
500009d4:	e3a05007 	mov	r5, #7
500009d8:	e5943808 	ldr	r3, [r4, #2056]	; 0x808
500009dc:	e3a00ffa 	mov	r0, #1000	; 0x3e8
500009e0:	e1c33518 	bic	r3, r3, r8, lsl r5
500009e4:	e2455001 	sub	r5, r5, #1
500009e8:	e5843808 	str	r3, [r4, #2056]	; 0x808
500009ec:	ebfffebf 	bl	500004f0 <dely_ms>
500009f0:	e3550004 	cmp	r5, #4
500009f4:	e5847808 	str	r7, [r4, #2056]	; 0x808
500009f8:	0a000004 	beq	50000a10 <do_irq_2+0x1b8>
500009fc:	eafffff5 	b	500009d8 <do_irq_2+0x180>
50000a00:	e59f419c 	ldr	r4, [pc, #412]	; 50000ba4 <do_irq_2+0x34c>
50000a04:	e3a08001 	mov	r8, #1
50000a08:	e3a070ff 	mov	r7, #255	; 0xff
50000a0c:	e1a06004 	mov	r6, r4
50000a10:	e5943924 	ldr	r3, [r4, #2340]	; 0x924
50000a14:	e5942924 	ldr	r2, [r4, #2340]	; 0x924
50000a18:	e3120002 	tst	r2, #2
50000a1c:	13a03000 	movne	r3, #0
50000a20:	1a000002 	bne	50000a30 <do_irq_2+0x1d8>
50000a24:	e3130001 	tst	r3, #1
50000a28:	13a03000 	movne	r3, #0
50000a2c:	03a03001 	moveq	r3, #1
50000a30:	e5942924 	ldr	r2, [r4, #2340]	; 0x924
50000a34:	e3120004 	tst	r2, #4
50000a38:	1a000039 	bne	50000b24 <do_irq_2+0x2cc>
50000a3c:	e3530000 	cmp	r3, #0
50000a40:	1affffcc 	bne	50000978 <do_irq_2+0x120>
50000a44:	ea000036 	b	50000b24 <do_irq_2+0x2cc>
50000a48:	e5932000 	ldr	r2, [r3]
50000a4c:	e3520004 	cmp	r2, #4
50000a50:	1a000037 	bne	50000b34 <do_irq_2+0x2dc>
50000a54:	ea000021 	b	50000ae0 <do_irq_2+0x288>
50000a58:	e3a05007 	mov	r5, #7
50000a5c:	e5943808 	ldr	r3, [r4, #2056]	; 0x808
50000a60:	e3a00e7d 	mov	r0, #2000	; 0x7d0
50000a64:	e1c33518 	bic	r3, r3, r8, lsl r5
50000a68:	e2455001 	sub	r5, r5, #1
50000a6c:	e5843808 	str	r3, [r4, #2056]	; 0x808
50000a70:	ebfffe9e 	bl	500004f0 <dely_ms>
50000a74:	e3550004 	cmp	r5, #4
50000a78:	e5847808 	str	r7, [r4, #2056]	; 0x808
50000a7c:	1afffff6 	bne	50000a5c <do_irq_2+0x204>
50000a80:	e5963924 	ldr	r3, [r6, #2340]	; 0x924
50000a84:	e5962924 	ldr	r2, [r6, #2340]	; 0x924
50000a88:	e3120002 	tst	r2, #2
50000a8c:	13a03000 	movne	r3, #0
50000a90:	1a000002 	bne	50000aa0 <do_irq_2+0x248>
50000a94:	e3130001 	tst	r3, #1
50000a98:	13a03000 	movne	r3, #0
50000a9c:	03a03001 	moveq	r3, #1
50000aa0:	e5942924 	ldr	r2, [r4, #2340]	; 0x924
50000aa4:	e3120004 	tst	r2, #4
50000aa8:	1a00001d 	bne	50000b24 <do_irq_2+0x2cc>
50000aac:	e3530000 	cmp	r3, #0
50000ab0:	0a00001b 	beq	50000b24 <do_irq_2+0x2cc>
50000ab4:	e3a05004 	mov	r5, #4
50000ab8:	e5943808 	ldr	r3, [r4, #2056]	; 0x808
50000abc:	e3a00e7d 	mov	r0, #2000	; 0x7d0
50000ac0:	e1c33518 	bic	r3, r3, r8, lsl r5
50000ac4:	e2855001 	add	r5, r5, #1
50000ac8:	e5843808 	str	r3, [r4, #2056]	; 0x808
50000acc:	ebfffe87 	bl	500004f0 <dely_ms>
50000ad0:	e3550007 	cmp	r5, #7
50000ad4:	e5847808 	str	r7, [r4, #2056]	; 0x808
50000ad8:	0a000004 	beq	50000af0 <do_irq_2+0x298>
50000adc:	eafffff5 	b	50000ab8 <do_irq_2+0x260>
50000ae0:	e59f40bc 	ldr	r4, [pc, #188]	; 50000ba4 <do_irq_2+0x34c>
50000ae4:	e3a08001 	mov	r8, #1
50000ae8:	e3a070ff 	mov	r7, #255	; 0xff
50000aec:	e1a06004 	mov	r6, r4
50000af0:	e5943924 	ldr	r3, [r4, #2340]	; 0x924
50000af4:	e5942924 	ldr	r2, [r4, #2340]	; 0x924
50000af8:	e3120002 	tst	r2, #2
50000afc:	13a03000 	movne	r3, #0
50000b00:	1a000002 	bne	50000b10 <do_irq_2+0x2b8>
50000b04:	e3130001 	tst	r3, #1
50000b08:	13a03000 	movne	r3, #0
50000b0c:	03a03001 	moveq	r3, #1
50000b10:	e5942924 	ldr	r2, [r4, #2340]	; 0x924
50000b14:	e3120004 	tst	r2, #4
50000b18:	1a000001 	bne	50000b24 <do_irq_2+0x2cc>
50000b1c:	e3530000 	cmp	r3, #0
50000b20:	1affffcc 	bne	50000a58 <do_irq_2+0x200>
50000b24:	e59f3074 	ldr	r3, [pc, #116]	; 50000ba0 <do_irq_2+0x348>
50000b28:	e3a02000 	mov	r2, #0
50000b2c:	e5832000 	str	r2, [r3]
50000b30:	ea000013 	b	50000b84 <do_irq_2+0x32c>
50000b34:	e5933000 	ldr	r3, [r3]
50000b38:	e3530005 	cmp	r3, #5
50000b3c:	1a000010 	bne	50000b84 <do_irq_2+0x32c>
50000b40:	e59f3060 	ldr	r3, [pc, #96]	; 50000ba8 <do_irq_2+0x350>
50000b44:	e59f5058 	ldr	r5, [pc, #88]	; 50000ba4 <do_irq_2+0x34c>
50000b48:	e5934000 	ldr	r4, [r3]
50000b4c:	e3a070ef 	mov	r7, #239	; 0xef
50000b50:	e3a060ff 	mov	r6, #255	; 0xff
50000b54:	ea000006 	b	50000b74 <do_irq_2+0x31c>
50000b58:	e3a00ffa 	mov	r0, #1000	; 0x3e8
50000b5c:	e5857808 	str	r7, [r5, #2056]	; 0x808
50000b60:	ebfffe62 	bl	500004f0 <dely_ms>
50000b64:	e5856808 	str	r6, [r5, #2056]	; 0x808
50000b68:	e3a00ffa 	mov	r0, #1000	; 0x3e8
50000b6c:	ebfffe5f 	bl	500004f0 <dely_ms>
50000b70:	e2444001 	sub	r4, r4, #1
50000b74:	e3540000 	cmp	r4, #0
50000b78:	1afffff6 	bne	50000b58 <do_irq_2+0x300>
50000b7c:	e59f301c 	ldr	r3, [pc, #28]	; 50000ba0 <do_irq_2+0x348>
50000b80:	e5834000 	str	r4, [r3]
50000b84:	e59f3028 	ldr	r3, [pc, #40]	; 50000bb4 <do_irq_2+0x35c>
50000b88:	e5932044 	ldr	r2, [r3, #68]	; 0x44
50000b8c:	e5832044 	str	r2, [r3, #68]	; 0x44
50000b90:	e59f3020 	ldr	r3, [pc, #32]	; 50000bb8 <do_irq_2+0x360>
50000b94:	e3a02000 	mov	r2, #0
50000b98:	e5832f00 	str	r2, [r3, #3840]	; 0xf00
50000b9c:	e8bd81f0 	pop	{r4, r5, r6, r7, r8, pc}
50000ba0:	50000bc0 	andpl	r0, r0, r0, asr #23
50000ba4:	7f008000 	svcvc	0x00008000
50000ba8:	50000bcc 	andpl	r0, r0, ip, asr #23
50000bac:	50000bc4 	andpl	r0, r0, r4, asr #23
50000bb0:	50000bc8 	andpl	r0, r0, r8, asr #23
50000bb4:	7f006000 	svcvc	0x00006000
50000bb8:	71200000 	teqvc	r0, r0

50000bbc <main>:
50000bbc:	eafffffe 	b	50000bbc <main>

Disassembly of section .bss:

50000bc0 <mode>:
50000bc0:	00000000 	andeq	r0, r0, r0

50000bc4 <TEN>:
50000bc4:	00000000 	andeq	r0, r0, r0

50000bc8 <HUNDERED>:
50000bc8:	00000000 	andeq	r0, r0, r0

50000bcc <INDIVIDUAL>:
50000bcc:	00000000 	andeq	r0, r0, r0

Disassembly of section .comment:

00000000 <.comment>:
   0:	3a434347 	bcc	10d0d24 <_start-0x4ef2f2dc>
   4:	74632820 	strbtvc	r2, [r3], #-2080	; 0x820
   8:	312d676e 	teqcc	sp, lr, ror #14
   c:	312e382e 	teqcc	lr, lr, lsr #16
  10:	2941462d 	stmdbcs	r1, {r0, r2, r3, r5, r9, sl, lr}^
  14:	352e3420 	strcc	r3, [lr, #-1056]!	; 0x420
  18:	Address 0x00000018 is out of bounds.


Disassembly of section .ARM.attributes:

00000000 <.ARM.attributes>:
   0:	00003341 	andeq	r3, r0, r1, asr #6
   4:	61656100 	cmnvs	r5, r0, lsl #2
   8:	01006962 	tsteq	r0, r2, ror #18
   c:	00000029 	andeq	r0, r0, r9, lsr #32
  10:	4d524105 	ldfmie	f4, [r2, #-20]	; 0xffffffec
  14:	36373131 	undefined instruction 0x36373131
  18:	2d465a4a 	vstrcs	s11, [r6, #-296]	; 0xfffffed8
  1c:	09060053 	stmdbeq	r6, {r0, r1, r4, r6}
  20:	01090108 	tsteq	r9, r8, lsl #2
  24:	0412020a 	ldreq	r0, [r2], #-522	; 0x20a
  28:	01150114 	tsteq	r5, r4, lsl r1
  2c:	01180317 	tsteq	r8, r7, lsl r3
  30:	031b021a 	tsteq	fp, #-1610612735	; 0xa0000001
